; Function Attrs: mustprogress uwtable
define hidden noundef i32 @_ZN4cvc58internal6theory9datatypes5utils30getOperatorKindForSygusBuiltinENS0_12NodeTemplateILb1EEE(ptr noundef readonly captures(none) %0) local_unnamed_addr #3 personality ptr @__gxx_personality_v0 {
  %2 = alloca %"class.cvc5::internal::NodeTemplate.0", align 8
  %3 = load ptr, ptr %0, align 8, !tbaa !3
  %4 = getelementptr inbounds nuw i8, ptr %3, i64 8
  %5 = load i64, ptr %4, align 8
  %6 = and i64 %5, 1023
  %7 = icmp eq i64 %6, 29
  br i1 %7, label %10, label %8

8:                                                ; preds = %1
  store ptr %3, ptr %2, align 8, !tbaa !134
  %9 = call noundef i32 @_ZN4cvc58internal11NodeManager18getKindForFunctionENS0_12NodeTemplateILb0EEE(ptr noundef nonnull %2)
  br label %10

10:                                               ; preds = %8, %1
  %.0 = phi i32 [ 27, %1 ], [ %9, %8 ]
  ret i32 %.0
}